(lp0
(I489
I15
tp1
a(I496
I680
tp2
a(I392
I266
tp3
a(I489
I738
tp4
a(I304
I214
tp5
a(I505
I219
tp6
a(I546
I306
tp7
a(I383
I2
tp8
a(I354
I159
tp9
a(I88
I361
tp10
a(I481
I323
tp11
a(I177
I661
tp12
a(I773
I739
tp13
a(I184
I341
tp14
a(I192
I617
tp15
a(I247
I229
tp16
a(I102
I0
tp17
a(I559
I621
tp18
a(I455
I299
tp19
a(I469
I559
tp20
a(I606
I92
tp21
a(I34
I242
tp22
a(I316
I124
tp23
a(I255
I685
tp24
a(I376
I518
tp25
a(I578
I62
tp26
a(I747
I536
tp27
a(I702
I470
tp28
a(I583
I615
tp29
a(I475
I666
tp30
a(I160
I741
tp31
a(I323
I331
tp32
a(I277
I316
tp33
a(I585
I329
tp34
a(I78
I151
tp35
a(I255
I25
tp36
a(I690
I2
tp37
a(I321
I404
tp38
a(I255
I138
tp39
a(I59
I263
tp40
a(I193
I690
tp41
a(I550
I656
tp42
a(I437
I119
tp43
a(I389
I82
tp44
a(I546
I395
tp45
a(I625
I322
tp46
a(I309
I181
tp47
a(I718
I772
tp48
a(I4
I710
tp49
a(I235
I388
tp50
a(I109
I594
tp51
a(I132
I524
tp52
a(I199
I450
tp53
a(I694
I552
tp54
a(I271
I479
tp55
a(I732
I484
tp56
a(I253
I241
tp57
a(I9
I701
tp58
a(I369
I580
tp59
a(I78
I452
tp60
a(I407
I553
tp61
a(I687
I202
tp62
a(I72
I686
tp63
a(I227
I165
tp64
a(I127
I18
tp65
a(I464
I147
tp66
a(I603
I613
tp67
a(I674
I306
tp68
a(I679
I699
tp69
a(I344
I745
tp70
a(I586
I288
tp71
a(I326
I606
tp72
a(I312
I716
tp73
a(I307
I655
tp74
a(I692
I524
tp75
a(I250
I181
tp76
a(I171
I356
tp77
a(I341
I478
tp78
a(I109
I300
tp79
a(I626
I181
tp80
a(I159
I481
tp81
a(I334
I299
tp82
a(I483
I330
tp83
a(I773
I296
tp84
a(I510
I613
tp85
a(I399
I97
tp86
a(I548
I512
tp87
a(I218
I331
tp88
a(I105
I338
tp89
a(I125
I398
tp90
a(I436
I120
tp91
a(I314
I715
tp92
a(I461
I160
tp93
a(I252
I321
tp94
a(I96
I703
tp95
a(I128
I523
tp96
a(I738
I235
tp97
a(I471
I484
tp98
a(I193
I84
tp99
a(I164
I128
tp100
a(I365
I270
tp101
a(I187
I617
tp102
a(I260
I125
tp103
a(I500
I6
tp104
a(I565
I348
tp105
a(I602
I630
tp106
a(I465
I455
tp107
a(I342
I712
tp108
a(I378
I752
tp109
a(I571
I658
tp110
a(I418
I676
tp111
a(I36
I336
tp112
a(I128
I691
tp113
a(I480
I5
tp114
a(I40
I543
tp115
a(I224
I53
tp116
a(I395
I171
tp117
a(I145
I213
tp118
a(I601
I760
tp119
a(I64
I401
tp120
a(I79
I699
tp121
a(I549
I726
tp122
a(I21
I569
tp123
a(I745
I505
tp124
a(I678
I123
tp125
a(I403
I83
tp126
a(I70
I73
tp127
a(I326
I524
tp128
a(I5
I513
tp129
a(I490
I758
tp130
a(I691
I429
tp131
a(I30
I521
tp132
a(I727
I537
tp133
a(I238
I181
tp134
a(I407
I592
tp135
a(I421
I176
tp136
a(I59
I560
tp137
a(I439
I666
tp138
a(I558
I288
tp139
a(I524
I89
tp140
a(I93
I77
tp141
a(I754
I357
tp142
a(I379
I662
tp143
a(I441
I368
tp144
a(I772
I138
tp145
a(I187
I184
tp146
a(I510
I230
tp147
a(I243
I406
tp148
a(I42
I329
tp149
a(I667
I537
tp150
a(I657
I7
tp151
a(I526
I106
tp152
a(I633
I200
tp153
a(I643
I292
tp154
a(I343
I187
tp155
a(I16
I455
tp156
a(I234
I283
tp157
a(I554
I508
tp158
a(I440
I665
tp159
a(I378
I333
tp160
a(I285
I154
tp161
a(I26
I326
tp162
a(I116
I74
tp163
a(I589
I452
tp164
a(I747
I671
tp165
a(I553
I248
tp166
a(I509
I479
tp167
a(I678
I194
tp168
a(I142
I460
tp169
a(I766
I653
tp170
a(I523
I182
tp171
a(I313
I575
tp172
a(I323
I546
tp173
a(I43
I276
tp174
a(I411
I513
tp175
a(I672
I593
tp176
a(I140
I747
tp177
a(I623
I657
tp178
a(I518
I36
tp179
a(I609
I121
tp180
a(I113
I758
tp181
a(I94
I577
tp182
a(I415
I595
tp183
a(I140
I597
tp184
a(I133
I581
tp185
a(I759
I426
tp186
a(I657
I294
tp187
a(I261
I549
tp188
a(I295
I752
tp189
a(I358
I651
tp190
a(I251
I179
tp191
a(I481
I426
tp192
a(I251
I262
tp193
a(I153
I74
tp194
a(I661
I769
tp195
a(I643
I215
tp196
a(I346
I375
tp197
a(I496
I421
tp198
a(I663
I556
tp199
a(I390
I586
tp200
a(I281
I71
tp201
a(I652
I690
tp202
a(I658
I95
tp203
a(I143
I260
tp204
a(I707
I414
tp205
a(I694
I309
tp206
a(I399
I534
tp207
a(I57
I399
tp208
a(I347
I719
tp209
a(I481
I32
tp210
a(I499
I269
tp211
a(I418
I635
tp212
a(I133
I245
tp213
a(I586
I633
tp214
a(I691
I82
tp215
a(I248
I349
tp216
a(I48
I543
tp217
a(I169
I458
tp218
a(I750
I482
tp219
a(I520
I607
tp220
a(I112
I28
tp221
a(I252
I260
tp222
a(I2
I390
tp223
a(I405
I111
tp224
a(I622
I653
tp225
a(I228
I588
tp226
a(I101
I97
tp227
a(I322
I205
tp228
a(I247
I691
tp229
a(I154
I743
tp230
a(I150
I462
tp231
a(I212
I464
tp232
a(I535
I57
tp233
a(I446
I478
tp234
a(I65
I128
tp235
a(I489
I456
tp236
a(I755
I62
tp237
a(I405
I236
tp238
a(I246
I603
tp239
a(I228
I675
tp240
a(I140
I282
tp241
a(I425
I693
tp242
a(I94
I726
tp243
a(I36
I215
tp244
a(I240
I75
tp245
a(I194
I24
tp246
a(I322
I169
tp247
a(I563
I463
tp248
a(I720
I444
tp249
a(I286
I347
tp250
a(I98
I283
tp251
a(I280
I598
tp252
a(I312
I108
tp253
a(I152
I308
tp254
a(I689
I410
tp255
a(I696
I31
tp256
a(I336
I165
tp257
a(I548
I651
tp258
a(I446
I68
tp259
a(I613
I717
tp260
a(I667
I704
tp261
a(I235
I330
tp262
a(I632
I409
tp263
a(I730
I42
tp264
a(I341
I474
tp265
a(I633
I441
tp266
a(I344
I61
tp267
a(I745
I709
tp268
a(I8
I97
tp269
a(I484
I99
tp270
a(I129
I307
tp271
a(I468
I100
tp272
a(I304
I675
tp273
a(I462
I699
tp274
a(I707
I634
tp275
a(I339
I369
tp276
a(I200
I398
tp277
a(I463
I268
tp278
a(I754
I260
tp279
a(I751
I33
tp280
a(I508
I255
tp281
a(I13
I43
tp282
a(I591
I25
tp283
a(I592
I493
tp284
a(I41
I303
tp285
a(I622
I383
tp286
a(I101
I138
tp287
a(I402
I371
tp288
a(I494
I569
tp289
a(I465
I340
tp290
a(I657
I545
tp291
a(I659
I157
tp292
a(I707
I119
tp293
a(I131
I527
tp294
a(I162
I381
tp295
a(I385
I672
tp296
a(I528
I202
tp297
a(I585
I643
tp298
a(I425
I648
tp299
a(I48
I731
tp300
a(I2
I588
tp301
a(I155
I760
tp302
a(I2
I391
tp303
a(I718
I449
tp304
a(I123
I46
tp305
a(I363
I47
tp306
a(I354
I508
tp307
a(I696
I529
tp308
a(I177
I435
tp309
a(I460
I93
tp310
a(I211
I104
tp311
a(I80
I243
tp312
a(I113
I249
tp313
a(I197
I62
tp314
a(I286
I282
tp315
a(I290
I481
tp316
a(I759
I523
tp317
a(I485
I329
tp318
a(I327
I593
tp319
a(I632
I634
tp320
a(I355
I612
tp321
a(I612
I407
tp322
a(I199
I332
tp323
a(I291
I142
tp324
a(I278
I322
tp325
a(I380
I371
tp326
a(I200
I269
tp327
a(I267
I200
tp328
a(I695
I225
tp329
a(I388
I513
tp330
a(I182
I532
tp331
a(I661
I537
tp332
a(I531
I689
tp333
a(I494
I720
tp334
a(I245
I679
tp335
a(I413
I590
tp336
a(I746
I764
tp337
a(I632
I593
tp338
a(I398
I228
tp339
a(I351
I146
tp340
a(I225
I33
tp341
a(I307
I87
tp342
a(I333
I35
tp343
a(I488
I11
tp344
a(I572
I91
tp345
a(I110
I436
tp346
a(I311
I558
tp347
a(I687
I741
tp348
a(I336
I95
tp349
a(I511
I292
tp350
a(I72
I474
tp351
a(I704
I518
tp352
a(I411
I358
tp353
a(I31
I343
tp354
a(I297
I348
tp355
a(I409
I27
tp356
a(I89
I290
tp357
a(I532
I620
tp358
a(I752
I244
tp359
a(I251
I668
tp360
a(I208
I624
tp361
a(I210
I491
tp362
a(I743
I612
tp363
a(I292
I515
tp364
a(I541
I309
tp365
a(I603
I37
tp366
a(I732
I582
tp367
a(I39
I115
tp368
a(I563
I524
tp369
a(I11
I129
tp370
a(I76
I300
tp371
a(I564
I18
tp372
a(I636
I556
tp373
a(I687
I646
tp374
a(I626
I586
tp375
a(I247
I503
tp376
a(I468
I499
tp377
a(I204
I6
tp378
a(I616
I402
tp379
a(I262
I166
tp380
a(I374
I722
tp381
a(I285
I331
tp382
a(I42
I437
tp383
a(I758
I577
tp384
a(I353
I461
tp385
a(I300
I99
tp386
a(I576
I39
tp387
a(I628
I756
tp388
a(I241
I126
tp389
a(I746
I613
tp390
a(I720
I211
tp391
a(I724
I247
tp392
a(I722
I141
tp393
a(I443
I613
tp394
a(I746
I770
tp395
a(I317
I573
tp396
a(I2
I91
tp397
a(I512
I520
tp398
a(I410
I75
tp399
a(I744
I368
tp400
a(I90
I719
tp401
a(I8
I769
tp402
a(I237
I766
tp403
a(I100
I130
tp404
a(I405
I381
tp405
a(I458
I93
tp406
a(I399
I413
tp407
a(I117
I226
tp408
a(I476
I275
tp409
a(I399
I752
tp410
a(I516
I37
tp411
a(I120
I59
tp412
a(I32
I548
tp413
a(I158
I566
tp414
a(I505
I349
tp415
a(I109
I725
tp416
a(I304
I377
tp417
a(I67
I13
tp418
a(I481
I227
tp419
a(I486
I254
tp420
a(I371
I201
tp421
a(I124
I182
tp422
a(I275
I346
tp423
a(I98
I63
tp424
a(I337
I634
tp425
a(I159
I624
tp426
a(I299
I568
tp427
a(I46
I395
tp428
a(I71
I290
tp429
a(I666
I543
tp430
a(I547
I33
tp431
a(I319
I694
tp432
a(I685
I557
tp433
a(I442
I769
tp434
a(I630
I154
tp435
a(I222
I638
tp436
a(I13
I85
tp437
a(I121
I478
tp438
a(I449
I483
tp439
a(I682
I592
tp440
a(I408
I454
tp441
a(I760
I501
tp442
a(I19
I2
tp443
a(I278
I582
tp444
a(I560
I69
tp445
a(I308
I333
tp446
a(I480
I323
tp447
a(I663
I761
tp448
a(I366
I398
tp449
a(I667
I151
tp450
a(I705
I724
tp451
a(I58
I9
tp452
a(I564
I465
tp453
a(I589
I198
tp454
a(I179
I524
tp455
a(I424
I203
tp456
a(I25
I306
tp457
a(I594
I591
tp458
a(I277
I301
tp459
a(I482
I521
tp460
a(I69
I159
tp461
a(I676
I83
tp462
a(I452
I493
tp463
a(I58
I246
tp464
a(I558
I451
tp465
a(I616
I504
tp466
a(I378
I317
tp467
a(I592
I311
tp468
a(I118
I673
tp469
a(I289
I440
tp470
a(I551
I541
tp471
a(I186
I102
tp472
a(I688
I206
tp473
a(I481
I478
tp474
a(I426
I179
tp475
a(I721
I406
tp476
a(I701
I286
tp477
a(I758
I741
tp478
a(I332
I59
tp479
a(I231
I751
tp480
a(I519
I590
tp481
a(I685
I472
tp482
a(I100
I118
tp483
a(I770
I394
tp484
a(I728
I734
tp485
a(I553
I236
tp486
a(I140
I79
tp487
a(I704
I73
tp488
a(I99
I323
tp489
a(I763
I217
tp490
a(I135
I500
tp491
a(I143
I513
tp492
a(I136
I406
tp493
a(I713
I115
tp494
a(I154
I234
tp495
a(I653
I720
tp496
a(I270
I214
tp497
a(I248
I220
tp498
a(I293
I96
tp499
a(I425
I182
tp500
a(I145
I176
tp501
a(I451
I575
tp502
a(I182
I101
tp503
a(I292
I695
tp504
a(I510
I408
tp505
a(I77
I425
tp506
a(I251
I149
tp507
a(I771
I588
tp508
a(I681
I180
tp509
a(I98
I203
tp510
a(I630
I75
tp511
a(I0
I107
tp512
a(I23
I404
tp513
a(I279
I479
tp514
a(I32
I144
tp515
a(I25
I756
tp516
a(I107
I706
tp517
a(I205
I416
tp518
a(I589
I583
tp519
a(I74
I209
tp520
a(I513
I140
tp521
a(I127
I722
tp522
a(I158
I634
tp523
a(I690
I723
tp524
a(I439
I551
tp525
a(I482
I424
tp526
a(I239
I576
tp527
a(I80
I1
tp528
a(I222
I26
tp529
a(I650
I770
tp530
a(I563
I172
tp531
a(I501
I177
tp532
a(I535
I673
tp533
a(I512
I149
tp534
a(I300
I594
tp535
a(I712
I438
tp536
a(I529
I579
tp537
a(I750
I242
tp538
a(I213
I329
tp539
a(I65
I261
tp540
a(I161
I61
tp541
a(I707
I225
tp542
a(I111
I41
tp543
a(I218
I261
tp544
a(I58
I121
tp545
a(I729
I670
tp546
a(I519
I241
tp547
a(I162
I37
tp548
a(I290
I267
tp549
a(I613
I730
tp550
a(I655
I284
tp551
a(I13
I418
tp552
a(I217
I735
tp553
a(I170
I601
tp554
a(I626
I728
tp555
a(I419
I193
tp556
a(I654
I697
tp557
a(I337
I678
tp558
a(I188
I589
tp559
a(I497
I329
tp560
a(I251
I683
tp561
a(I236
I139
tp562
a(I716
I532
tp563
a(I634
I332
tp564
a(I185
I772
tp565
a(I517
I139
tp566
a(I456
I733
tp567
a(I663
I757
tp568
a(I82
I157
tp569
a(I648
I410
tp570
a(I28
I607
tp571
a(I140
I757
tp572
a(I115
I21
tp573
a(I644
I653
tp574
a(I755
I767
tp575
a(I648
I768
tp576
a(I762
I207
tp577
a(I366
I675
tp578
a(I667
I267
tp579
a(I14
I664
tp580
a(I589
I518
tp581
a(I238
I714
tp582
a(I27
I293
tp583
a(I544
I633
tp584
a(I306
I536
tp585
a(I166
I740
tp586
a(I387
I605
tp587
a(I531
I177
tp588
a(I390
I294
tp589
a(I449
I247
tp590
a(I163
I199
tp591
a(I744
I723
tp592
a(I137
I266
tp593
a(I671
I515
tp594
a(I49
I640
tp595
a(I655
I393
tp596
a(I132
I765
tp597
a(I449
I618
tp598
a(I284
I210
tp599
a(I412
I207
tp600
a(I537
I465
tp601
a(I773
I298
tp602
a(I682
I137
tp603
a(I571
I266
tp604
a(I355
I594
tp605
a(I393
I447
tp606
a(I674
I533
tp607
a(I636
I436
tp608
a(I506
I301
tp609
a(I365
I714
tp610
a(I39
I520
tp611
a(I744
I646
tp612
a(I502
I662
tp613
a(I164
I22
tp614
a(I265
I316
tp615
a(I292
I696
tp616
a(I160
I663
tp617
a(I249
I679
tp618
a(I125
I581
tp619
a(I693
I420
tp620
a(I344
I629
tp621
a(I698
I714
tp622
a(I381
I649
tp623
a(I732
I582
tp624
a(I631
I513
tp625
a(I614
I195
tp626
a(I653
I382
tp627
a(I534
I197
tp628
a(I502
I741
tp629
a(I361
I656
tp630
a(I217
I478
tp631
a(I68
I634
tp632
a(I436
I750
tp633
a(I23
I490
tp634
a(I117
I50
tp635
a(I246
I728
tp636
a(I350
I582
tp637
a(I722
I608
tp638
a(I34
I741
tp639
a(I56
I285
tp640
a(I262
I322
tp641
a(I597
I7
tp642
a(I561
I760
tp643
a(I438
I477
tp644
a(I85
I41
tp645
a(I700
I445
tp646
a(I475
I549
tp647
a(I162
I422
tp648
a(I190
I654
tp649
a(I310
I553
tp650
a(I203
I668
tp651
a(I410
I656
tp652
a(I231
I215
tp653
a(I60
I630
tp654
a(I589
I423
tp655
a(I573
I140
tp656
a(I183
I194
tp657
a(I355
I96
tp658
a(I508
I213
tp659
a(I243
I710
tp660
a(I154
I47
tp661
a(I213
I137
tp662
a(I722
I322
tp663
a(I111
I630
tp664
a(I363
I565
tp665
a(I45
I77
tp666
a(I481
I288
tp667
a(I332
I365
tp668
a(I736
I164
tp669
a(I766
I540
tp670
a(I206
I772
tp671
a(I726
I551
tp672
a(I299
I124
tp673
a(I243
I490
tp674
a(I289
I155
tp675
a(I298
I47
tp676
a(I99
I395
tp677
a(I80
I89
tp678
a(I677
I260
tp679
a(I46
I260
tp680
a(I145
I253
tp681
a(I308
I453
tp682
a(I480
I376
tp683
a(I725
I297
tp684
a(I277
I189
tp685
a(I437
I631
tp686
a(I545
I709
tp687
a(I73
I256
tp688
a(I556
I212
tp689
a(I393
I289
tp690
a(I58
I140
tp691
a(I248
I536
tp692
a(I516
I326
tp693
a(I165
I443
tp694
a(I449
I370
tp695
a(I395
I228
tp696
a(I601
I663
tp697
a(I668
I485
tp698
a(I360
I39
tp699
a(I266
I212
tp700
a(I162
I682
tp701
a(I639
I27
tp702
a(I579
I372
tp703
a(I263
I16
tp704
a(I263
I500
tp705
a(I387
I262
tp706
a(I348
I452
tp707
a(I481
I119
tp708
a(I61
I189
tp709
a(I562
I540
tp710
a(I515
I616
tp711
a(I477
I173
tp712
a(I325
I477
tp713
a(I542
I472
tp714
a(I268
I369
tp715
a(I439
I765
tp716
a(I602
I414
tp717
a(I629
I370
tp718
a(I678
I630
tp719
a(I708
I320
tp720
a(I656
I171
tp721
a(I540
I337
tp722
a(I185
I664
tp723
a(I531
I468
tp724
a(I547
I382
tp725
a(I646
I191
tp726
a(I60
I733
tp727
a(I32
I224
tp728
a(I761
I424
tp729
a(I579
I37
tp730
a(I250
I299
tp731
a(I186
I404
tp732
a(I676
I224
tp733
a(I675
I584
tp734
a(I618
I387
tp735
a(I444
I599
tp736
a(I433
I741
tp737
a(I721
I541
tp738
a(I248
I142
tp739
a(I292
I588
tp740
a(I396
I635
tp741
a(I52
I51
tp742
a(I428
I384
tp743
a(I165
I451
tp744
a(I614
I334
tp745
a(I392
I624
tp746
a(I175
I421
tp747
a(I521
I602
tp748
a(I571
I166
tp749
a(I729
I504
tp750
a(I311
I128
tp751
a(I419
I625
tp752
a(I531
I81
tp753
a(I343
I569
tp754
a(I636
I227
tp755
a(I273
I257
tp756
a(I414
I284
tp757
a(I316
I12
tp758
a(I409
I420
tp759
a(I347
I186
tp760
a(I152
I245
tp761
a(I316
I297
tp762
a(I461
I39
tp763
a(I725
I349
tp764
a(I431
I507
tp765
a(I240
I357
tp766
a(I177
I201
tp767
a(I395
I677
tp768
a(I310
I628
tp769
a(I696
I136
tp770
a(I399
I457
tp771
a(I369
I526
tp772
a(I86
I276
tp773
a(I747
I689
tp774
a(I196
I118
tp775
a(I599
I186
tp776
a(I321
I26
tp777
a(I119
I681
tp778
a(I49
I753
tp779
a(I740
I580
tp780
a(I209
I293
tp781
a(I676
I720
tp782
a(I272
I317
tp783
a(I363
I560
tp784
a(I467
I292
tp785
a(I170
I196
tp786
a(I649
I591
tp787
a(I759
I599
tp788
a(I622
I586
tp789
a(I637
I145
tp790
a(I175
I749
tp791
a(I132
I633
tp792
a(I647
I97
tp793
a(I62
I691
tp794
a(I597
I505
tp795
a(I427
I67
tp796
a(I650
I769
tp797
a(I335
I113
tp798
a(I749
I147
tp799
a(I750
I686
tp800
a(I735
I487
tp801
a(I742
I442
tp802
a(I621
I362
tp803
a(I332
I169
tp804
a(I185
I568
tp805
a(I205
I327
tp806
a(I158
I449
tp807
a(I678
I535
tp808
a(I528
I267
tp809
a(I464
I640
tp810
a(I349
I479
tp811
a(I224
I297
tp812
a(I555
I313
tp813
a(I139
I450
tp814
a(I637
I14
tp815
a(I189
I187
tp816
a(I41
I3
tp817
a(I367
I153
tp818
a(I192
I593
tp819
a(I357
I637
tp820
a(I701
I453
tp821
a(I424
I606
tp822
a(I104
I137
tp823
a(I449
I373
tp824
a(I469
I108
tp825
a(I237
I566
tp826
a(I368
I402
tp827
a(I3
I504
tp828
a(I454
I394
tp829
a(I508
I774
tp830
a(I377
I154
tp831
a(I592
I170
tp832
a(I730
I581
tp833
a(I225
I460
tp834
a(I21
I742
tp835
a(I549
I619
tp836
a(I263
I432
tp837
a(I467
I249
tp838
a(I253
I107
tp839
a(I336
I551
tp840
a(I768
I677
tp841
a(I771
I12
tp842
a(I512
I311
tp843
a(I397
I27
tp844
a(I240
I690
tp845
a(I286
I485
tp846
a(I385
I450
tp847
a(I353
I477
tp848
a(I26
I104
tp849
a(I756
I664
tp850
a(I174
I466
tp851
a(I498
I739
tp852
a(I399
I348
tp853
a(I597
I564
tp854
a(I13
I451
tp855
a(I91
I594
tp856
a(I460
I69
tp857
a(I58
I692
tp858
a(I280
I253
tp859
a(I726
I169
tp860
a(I721
I69
tp861
a(I46
I766
tp862
a(I504
I589
tp863
a(I414
I21
tp864
a(I633
I435
tp865
a(I772
I182
tp866
a(I154
I73
tp867
a(I52
I686
tp868
a(I388
I261
tp869
a(I338
I184
tp870
a(I594
I341
tp871
a(I253
I105
tp872
a(I99
I513
tp873
a(I357
I558
tp874
a(I309
I388
tp875
a(I193
I47
tp876
a(I566
I439
tp877
a(I265
I706
tp878
a(I122
I607
tp879
a(I440
I62
tp880
a(I743
I613
tp881
a(I180
I420
tp882
a(I333
I10
tp883
a(I699
I634
tp884
a(I77
I510
tp885
a(I314
I726
tp886
a(I714
I416
tp887
a(I615
I485
tp888
a(I4
I542
tp889
a(I556
I536
tp890
a(I249
I227
tp891
a(I571
I356
tp892
a(I172
I231
tp893
a(I18
I543
tp894
a(I701
I168
tp895
a(I713
I763
tp896
a(I715
I97
tp897
a(I206
I177
tp898
a(I440
I336
tp899
a(I339
I362
tp900
a(I476
I506
tp901
a(I112
I227
tp902
a(I347
I192
tp903
a(I580
I637
tp904
a(I627
I354
tp905
a(I390
I618
tp906
a(I390
I42
tp907
a(I15
I29
tp908
a(I556
I96
tp909
a(I15
I60
tp910
a(I706
I421
tp911
a(I536
I352
tp912
a(I721
I536
tp913
a(I58
I306
tp914
a(I657
I598
tp915
a(I758
I589
tp916
a(I388
I113
tp917
a(I645
I607
tp918
a(I232
I623
tp919
a(I764
I700
tp920
a(I697
I241
tp921
a(I244
I733
tp922
a(I263
I346
tp923
a(I769
I443
tp924
a(I464
I534
tp925
a(I631
I135
tp926
a(I306
I243
tp927
a(I53
I336
tp928
a(I602
I374
tp929
a(I633
I209
tp930
a(I31
I354
tp931
a(I373
I64
tp932
a(I413
I174
tp933
a(I81
I591
tp934
a(I315
I565
tp935
a(I452
I210
tp936
a(I172
I690
tp937
a(I468
I617
tp938
a(I756
I313
tp939
a(I55
I641
tp940
a(I7
I452
tp941
a(I275
I564
tp942
a(I471
I719
tp943
a(I449
I283
tp944
a(I94
I287
tp945
a(I660
I644
tp946
a(I101
I82
tp947
a(I158
I276
tp948
a(I178
I299
tp949
a(I644
I206
tp950
a(I126
I374
tp951
a(I630
I418
tp952
a(I547
I197
tp953
a(I443
I365
tp954
a(I612
I738
tp955
a(I212
I123
tp956
a(I47
I143
tp957
a(I269
I760
tp958
a(I552
I97
tp959
a(I595
I18
tp960
a(I136
I182
tp961
a(I491
I518
tp962
a(I172
I314
tp963
a(I457
I95
tp964
a(I461
I116
tp965
a(I273
I614
tp966
a(I268
I545
tp967
a(I267
I679
tp968
a(I656
I255
tp969
a(I50
I44
tp970
a(I266
I162
tp971
a(I19
I692
tp972
a(I579
I297
tp973
a(I196
I531
tp974
a(I285
I720
tp975
a(I41
I278
tp976
a(I204
I141
tp977
a(I52
I723
tp978
a(I636
I370
tp979
a(I666
I63
tp980
a(I621
I469
tp981
a(I312
I518
tp982
a(I460
I558
tp983
a(I696
I646
tp984
a(I144
I583
tp985
a(I565
I138
tp986
a(I607
I545
tp987
a(I401
I534
tp988
a(I65
I417
tp989
a(I621
I119
tp990
a(I723
I155
tp991
a(I94
I360
tp992
a(I574
I32
tp993
a(I186
I334
tp994
a(I286
I716
tp995
a(I581
I107
tp996
a(I133
I638
tp997
a(I673
I616
tp998
a(I127
I477
tp999
a(I471
I551
tp1000
a.